; Function Attrs: nofree norecurse nosync nounwind memory(read, argmem: readwrite, inaccessiblemem: none) uwtable
define internal void @filter_sobel(ptr noundef writeonly captures(none) %0, i32 noundef %1, float noundef %2, float noundef %3, ptr readnone captures(none) %4, ptr noundef readonly captures(none) %5, i32 %6, i32 %7, i32 %8, i32 %9, i32 %10) #6 {
  %12 = load ptr, ptr %5, align 8, !tbaa !46
  %13 = getelementptr inbounds nuw i8, ptr %5, i64 8
  %14 = load ptr, ptr %13, align 8, !tbaa !46
  %15 = getelementptr inbounds nuw i8, ptr %5, i64 16
  %16 = load ptr, ptr %15, align 8, !tbaa !46
  %17 = getelementptr inbounds nuw i8, ptr %5, i64 24
  %18 = load ptr, ptr %17, align 8, !tbaa !46
  %19 = getelementptr inbounds nuw i8, ptr %5, i64 40
  %20 = load ptr, ptr %19, align 8, !tbaa !46
  %21 = getelementptr inbounds nuw i8, ptr %5, i64 48
  %22 = load ptr, ptr %21, align 8, !tbaa !46
  %23 = getelementptr inbounds nuw i8, ptr %5, i64 56
  %24 = load ptr, ptr %23, align 8, !tbaa !46
  %25 = getelementptr inbounds nuw i8, ptr %5, i64 64
  %26 = load ptr, ptr %25, align 8, !tbaa !46
  %27 = icmp sgt i32 %1, 0
  br i1 %27, label %.lr.ph.preheader, label %._crit_edge

.lr.ph.preheader:                                 ; preds = %11
  %wide.trip.count = zext nneg i32 %1 to i64
  br label %.lr.ph

.lr.ph:                                           ; preds = %.lr.ph.preheader, %.lr.ph
  %indvars.iv = phi i64 [ 0, %.lr.ph.preheader ], [ %indvars.iv.next, %.lr.ph ]
  %28 = getelementptr inbounds nuw i8, ptr %12, i64 %indvars.iv
  %29 = load i8, ptr %28, align 1, !tbaa !82
  %30 = zext i8 %29 to i32
  %31 = getelementptr inbounds nuw i8, ptr %14, i64 %indvars.iv
  %32 = load i8, ptr %31, align 1, !tbaa !82
  %33 = zext i8 %32 to i32
  %34 = getelementptr inbounds nuw i8, ptr %16, i64 %indvars.iv
  %35 = load i8, ptr %34, align 1, !tbaa !82
  %36 = zext i8 %35 to i32
  %37 = getelementptr inbounds nuw i8, ptr %22, i64 %indvars.iv
  %38 = load i8, ptr %37, align 1, !tbaa !82
  %39 = zext i8 %38 to i32
  %40 = getelementptr inbounds nuw i8, ptr %24, i64 %indvars.iv
  %41 = load i8, ptr %40, align 1, !tbaa !82
  %42 = zext i8 %41 to i32
  %43 = getelementptr inbounds nuw i8, ptr %26, i64 %indvars.iv
  %44 = load i8, ptr %43, align 1, !tbaa !82
  %45 = zext i8 %44 to i32
  %reass.add = sub nsw i32 %42, %33
  %reass.mul = shl nsw i32 %reass.add, 1
  %46 = add nuw nsw i32 %36, %30
  %47 = sub nsw i32 %39, %46
  %48 = add nsw i32 %47, %45
  %49 = add nsw i32 %48, %reass.mul
  %50 = sitofp i32 %49 to float
  %51 = getelementptr inbounds nuw i8, ptr %18, i64 %indvars.iv
  %52 = load i8, ptr %51, align 1, !tbaa !82
  %53 = zext i8 %52 to i32
  %54 = getelementptr inbounds nuw i8, ptr %20, i64 %indvars.iv
  %55 = load i8, ptr %54, align 1, !tbaa !82
  %56 = zext i8 %55 to i32
  %reass.add49 = sub nsw i32 %56, %53
  %reass.mul50 = shl nsw i32 %reass.add49, 1
  %57 = add nuw nsw i32 %30, %39
  %58 = sub nsw i32 %36, %57
  %59 = add nsw i32 %58, %45
  %60 = add nsw i32 %59, %reass.mul50
  %61 = sitofp i32 %60 to float
  %62 = fmul nsz float %61, %61
  %63 = tail call nsz float @llvm.fmuladd.f32(float %50, float %50, float %62)
  %64 = tail call nsz float @llvm.sqrt.f32(float %63)
  %65 = tail call nsz float @llvm.fmuladd.f32(float %64, float %2, float %3)
  %66 = fptosi float %65 to i32
  %.not.i = icmp ult i32 %66, 256
  %isnotneg.i = icmp sgt i32 %66, -1
  %67 = sext i1 %isnotneg.i to i8
  %68 = trunc nuw i32 %66 to i8
  %.0.i = select i1 %.not.i, i8 %68, i8 %67
  %69 = getelementptr inbounds nuw i8, ptr %0, i64 %indvars.iv
  store i8 %.0.i, ptr %69, align 1, !tbaa !82
  %indvars.iv.next = add nuw nsw i64 %indvars.iv, 1
  %exitcond.not = icmp eq i64 %indvars.iv.next, %wide.trip.count
  br i1 %exitcond.not, label %._crit_edge, label %.lr.ph, !llvm.loop !120

._crit_edge:                                      ; preds = %.lr.ph, %11
  ret void
}